target datalayout = "e-m:e-p270:32:32-p271:32:32-p272:64:64-i64:64-i128:128-f80:128-n8:16:32:64-S128"
target triple = "x86_64-pc-linux-gnu"

%struct._packet_info = type { ptr, ptr, i32, i32, %struct.nstime_t, %struct.nstime_t, %struct.nstime_t, i8, ptr, ptr, ptr, ptr, %struct._address, %struct._address, %struct._address, %struct._address, %struct._address, %struct._address, i32, ptr, i8, [3 x i8], %struct.anon, i32, i32, i32, i32, ptr, i8, ptr, ptr, i16, i16, i32, i32, i16, i32, i32, ptr, ptr, ptr, i8, i8, i16, i16, i16, i32, i16, i16, ptr, ptr, ptr, ptr, ptr, i32, i32 }
%struct.nstime_t = type { i64, i32 }
%struct._address = type { i32, i32, ptr, ptr }
%struct.anon = type { i8, [3 x i8] }
%struct._frame_data = type <{ i32, i32, i32, i32, i32, [4 x i8], i64, ptr, ptr, ptr, i8, i16, [5 x i8], %struct.nstime_t, %struct.nstime_t, i32, i32 }>
%struct.smb_info = type { i8, i32, i32, i32, i32, i32, i8, i8, i8, i32, i32, ptr, ptr }
%struct.smb_saved_info_t = type { i32, i32, %struct.nstime_t, i16, i8, ptr, i32, i8, i16 }
%struct.smb_transact_info_t = type { i32, i32, i32, i16, i16, ptr, ptr, ptr, i32 }

; Function Attrs: null_pointer_is_valid sspstrong uwtable
define internal i32 @add_detail_level(ptr noundef %0, i32 noundef %1, i32 noundef %2, ptr noundef %3, ptr noundef %4, i32 noundef %5, i32 noundef %6, ptr noundef %7) #0 {
  %9 = alloca ptr, align 8
  %10 = alloca i32, align 4
  %11 = alloca i32, align 4
  %12 = alloca ptr, align 8
  %13 = alloca ptr, align 8
  %14 = alloca i32, align 4
  %15 = alloca i32, align 4
  %16 = alloca ptr, align 8
  %17 = alloca ptr, align 8
  %18 = alloca i16, align 2
  store ptr %0, ptr %9, align 8
  store i32 %1, ptr %10, align 4
  store i32 %2, ptr %11, align 4
  store ptr %3, ptr %12, align 8
  store ptr %4, ptr %13, align 8
  store i32 %5, ptr %14, align 4
  store i32 %6, ptr %15, align 4
  store ptr %7, ptr %16, align 8
  call void @llvm.lifetime.start.p0(i64 8, ptr %17) #7
  store ptr null, ptr %17, align 8
  call void @llvm.lifetime.start.p0(i64 2, ptr %18) #7
  %19 = load ptr, ptr %16, align 8
  %20 = getelementptr inbounds nuw %struct.smb_info, ptr %19, i32 0, i32 11
  %21 = load ptr, ptr %20, align 8
  %22 = getelementptr inbounds nuw %struct.smb_saved_info_t, ptr %21, i32 0, i32 6
  %23 = load i32, ptr %22, align 8
  %24 = icmp eq i32 %23, 3
  br i1 %24, label %25, label %31

25:                                               ; preds = %8
  %26 = load ptr, ptr %16, align 8
  %27 = getelementptr inbounds nuw %struct.smb_info, ptr %26, i32 0, i32 11
  %28 = load ptr, ptr %27, align 8
  %29 = getelementptr inbounds nuw %struct.smb_saved_info_t, ptr %28, i32 0, i32 5
  %30 = load ptr, ptr %29, align 8
  store ptr %30, ptr %17, align 8
  br label %31

31:                                               ; preds = %25, %8
  %32 = load ptr, ptr %9, align 8
  %33 = load i32, ptr %10, align 4
  %34 = call zeroext i16 @tvb_get_letohs(ptr noundef %32, i32 noundef %33)
  store i16 %34, ptr %18, align 2
  %35 = load ptr, ptr %12, align 8
  %36 = getelementptr inbounds nuw %struct._packet_info, ptr %35, i32 0, i32 8
  %37 = load ptr, ptr %36, align 8
  %38 = getelementptr inbounds nuw %struct._frame_data, ptr %37, i32 0, i32 11
  %39 = load i16, ptr %38, align 1
  %40 = lshr i16 %39, 3
  %41 = and i16 %40, 1
  %42 = zext i16 %41 to i32
  %43 = icmp ne i32 %42, 0
  br i1 %43, label %53, label %44

44:                                               ; preds = %31
  %45 = load ptr, ptr %17, align 8
  %46 = icmp ne ptr %45, null
  br i1 %46, label %47, label %52

47:                                               ; preds = %44
  %48 = load i16, ptr %18, align 2
  %49 = zext i16 %48 to i32
  %50 = load ptr, ptr %17, align 8
  %51 = getelementptr inbounds nuw %struct.smb_transact_info_t, ptr %50, i32 0, i32 8
  store i32 %49, ptr %51, align 8
  br label %52

52:                                               ; preds = %47, %44
  br label %53

53:                                               ; preds = %52, %31
  %54 = load ptr, ptr %13, align 8
  %55 = load i32, ptr %15, align 4
  %56 = load ptr, ptr %9, align 8
  %57 = load i32, ptr %10, align 4
  %58 = load i16, ptr %18, align 2
  %59 = zext i16 %58 to i32
  %60 = call ptr @proto_tree_add_uint(ptr noundef %54, i32 noundef %55, ptr noundef %56, i32 noundef %57, i32 noundef 2, i32 noundef %59)
  %61 = load i32, ptr %10, align 4
  %62 = add i32 %61, 2
  store i32 %62, ptr %10, align 4
  %63 = load i32, ptr %10, align 4
  call void @llvm.lifetime.end.p0(i64 2, ptr %18) #7
  call void @llvm.lifetime.end.p0(i64 8, ptr %17) #7
  ret i32 %63
}