; Function Attrs: null_pointer_is_valid sspstrong uwtable
define internal noundef i32 @add_detail_level(ptr noundef %0, i32 noundef %1, i32 %2, ptr noundef readonly captures(none) %3, ptr noundef %4, i32 %5, i32 noundef %6, ptr noundef readonly captures(none) %7) #0 {
  %9 = getelementptr inbounds nuw i8, ptr %7, i64 40
  %10 = load ptr, ptr %9, align 8
  %11 = getelementptr inbounds nuw i8, ptr %10, i64 40
  %12 = load i32, ptr %11, align 8
  %13 = icmp eq i32 %12, 3
  br i1 %13, label %14, label %17

14:                                               ; preds = %8
  %15 = getelementptr inbounds nuw i8, ptr %10, i64 32
  %16 = load ptr, ptr %15, align 8
  br label %17

17:                                               ; preds = %14, %8
  %.0 = phi ptr [ %16, %14 ], [ null, %8 ]
  %18 = tail call zeroext i16 @tvb_get_letohs(ptr noundef %0, i32 noundef %1)
  %19 = getelementptr inbounds nuw i8, ptr %3, i64 80
  %20 = load ptr, ptr %19, align 8
  %21 = getelementptr inbounds nuw i8, ptr %20, i64 57
  %22 = load i16, ptr %21, align 1
  %23 = and i16 %22, 8
  %24 = icmp eq i16 %23, 0
  %25 = icmp ne ptr %.0, null
  %or.cond = select i1 %24, i1 %25, i1 false
  %26 = zext i16 %18 to i32
  br i1 %or.cond, label %27, label %._crit_edge

27:                                               ; preds = %17
  %28 = getelementptr inbounds nuw i8, ptr %.0, i64 40
  store i32 %26, ptr %28, align 8
  br label %._crit_edge

._crit_edge:                                      ; preds = %17, %27
  %29 = tail call ptr @proto_tree_add_uint(ptr noundef %4, i32 noundef %6, ptr noundef %0, i32 noundef %1, i32 noundef 2, i32 noundef %26)
  %30 = add i32 %1, 2
  ret i32 %30
}